target datalayout = "e-m:e-p270:32:32-p271:32:32-p272:64:64-i64:64-i128:128-f80:128-n8:16:32:64-S128"
target triple = "x86_64-pc-linux-gnu"

%struct.VP8Io = type { i32, i32, i32, i32, i32, ptr, ptr, ptr, i32, i32, ptr, ptr, ptr, ptr, i32, i64, ptr, i32, i32, i32, i32, i32, i32, i32, i32, i32, ptr }
%struct.WebPDecParams = type { ptr, ptr, ptr, ptr, i32, ptr, ptr, ptr, ptr, ptr, ptr, ptr, ptr, ptr }
%struct.WebPRescaler = type { i32, i32, i32, i32, i32, i32, i32, i32, i32, i32, i32, i32, i32, i32, i32, i32, i32, ptr, i32, ptr, ptr }

; Function Attrs: nounwind uwtable
define internal i32 @EmitRescaledAlphaRGB(ptr noundef %0, ptr noundef %1, i32 noundef %2) #0 {
  %4 = alloca ptr, align 8
  %5 = alloca ptr, align 8
  %6 = alloca i32, align 4
  %7 = alloca ptr, align 8
  %8 = alloca i32, align 4
  %9 = alloca i32, align 4
  %10 = alloca i64, align 8
  store ptr %0, ptr %4, align 8, !tbaa !8
  store ptr %1, ptr %5, align 8, !tbaa !3
  store i32 %2, ptr %6, align 4, !tbaa !19
  %11 = load ptr, ptr %4, align 8, !tbaa !8
  %12 = getelementptr inbounds nuw %struct.VP8Io, ptr %11, i32 0, i32 26
  %13 = load ptr, ptr %12, align 8, !tbaa !78
  %14 = icmp ne ptr %13, null
  br i1 %14, label %15, label %76

15:                                               ; preds = %3
  call void @llvm.lifetime.start.p0(i64 8, ptr %7) #6
  %16 = load ptr, ptr %5, align 8, !tbaa !3
  %17 = getelementptr inbounds nuw %struct.WebPDecParams, ptr %16, i32 0, i32 9
  %18 = load ptr, ptr %17, align 8, !tbaa !49
  store ptr %18, ptr %7, align 8, !tbaa !45
  call void @llvm.lifetime.start.p0(i64 4, ptr %8) #6
  %19 = load i32, ptr %6, align 4, !tbaa !19
  store i32 %19, ptr %8, align 4, !tbaa !19
  call void @llvm.lifetime.start.p0(i64 4, ptr %9) #6
  %20 = load ptr, ptr %5, align 8, !tbaa !3
  %21 = getelementptr inbounds nuw %struct.WebPDecParams, ptr %20, i32 0, i32 4
  %22 = load i32, ptr %21, align 8, !tbaa !27
  %23 = load i32, ptr %8, align 4, !tbaa !19
  %24 = add nsw i32 %22, %23
  store i32 %24, ptr %9, align 4, !tbaa !19
  br label %25

25:                                               ; preds = %28, %15
  %26 = load i32, ptr %8, align 4, !tbaa !19
  %27 = icmp sgt i32 %26, 0
  br i1 %27, label %28, label %75

28:                                               ; preds = %25
  call void @llvm.lifetime.start.p0(i64 8, ptr %10) #6
  %29 = load ptr, ptr %7, align 8, !tbaa !45
  %30 = getelementptr inbounds nuw %struct.WebPRescaler, ptr %29, i32 0, i32 15
  %31 = load i32, ptr %30, align 4, !tbaa !85
  %32 = sext i32 %31 to i64
  %33 = load ptr, ptr %4, align 8, !tbaa !8
  %34 = getelementptr inbounds nuw %struct.VP8Io, ptr %33, i32 0, i32 2
  %35 = load i32, ptr %34, align 8, !tbaa !66
  %36 = sext i32 %35 to i64
  %37 = sub nsw i64 %32, %36
  store i64 %37, ptr %10, align 8, !tbaa !41
  %38 = load ptr, ptr %7, align 8, !tbaa !45
  %39 = load ptr, ptr %4, align 8, !tbaa !8
  %40 = getelementptr inbounds nuw %struct.VP8Io, ptr %39, i32 0, i32 4
  %41 = load i32, ptr %40, align 8, !tbaa !20
  %42 = load ptr, ptr %4, align 8, !tbaa !8
  %43 = getelementptr inbounds nuw %struct.VP8Io, ptr %42, i32 0, i32 2
  %44 = load i32, ptr %43, align 8, !tbaa !66
  %45 = add nsw i32 %41, %44
  %46 = load ptr, ptr %7, align 8, !tbaa !45
  %47 = getelementptr inbounds nuw %struct.WebPRescaler, ptr %46, i32 0, i32 15
  %48 = load i32, ptr %47, align 4, !tbaa !85
  %49 = sub nsw i32 %45, %48
  %50 = load ptr, ptr %4, align 8, !tbaa !8
  %51 = getelementptr inbounds nuw %struct.VP8Io, ptr %50, i32 0, i32 26
  %52 = load ptr, ptr %51, align 8, !tbaa !78
  %53 = load i64, ptr %10, align 8, !tbaa !41
  %54 = load ptr, ptr %4, align 8, !tbaa !8
  %55 = getelementptr inbounds nuw %struct.VP8Io, ptr %54, i32 0, i32 0
  %56 = load i32, ptr %55, align 8, !tbaa !81
  %57 = sext i32 %56 to i64
  %58 = mul nsw i64 %53, %57
  %59 = getelementptr inbounds i8, ptr %52, i64 %58
  %60 = load ptr, ptr %4, align 8, !tbaa !8
  %61 = getelementptr inbounds nuw %struct.VP8Io, ptr %60, i32 0, i32 0
  %62 = load i32, ptr %61, align 8, !tbaa !81
  %63 = call i32 @WebPRescalerImport(ptr noundef %38, i32 noundef %49, ptr noundef %59, i32 noundef %62)
  %64 = load ptr, ptr %5, align 8, !tbaa !3
  %65 = getelementptr inbounds nuw %struct.WebPDecParams, ptr %64, i32 0, i32 13
  %66 = load ptr, ptr %65, align 8, !tbaa !32
  %67 = load ptr, ptr %5, align 8, !tbaa !3
  %68 = load i32, ptr %9, align 4, !tbaa !19
  %69 = load i32, ptr %8, align 4, !tbaa !19
  %70 = sub nsw i32 %68, %69
  %71 = load i32, ptr %8, align 4, !tbaa !19
  %72 = call i32 %66(ptr noundef %67, i32 noundef %70, i32 noundef %71)
  %73 = load i32, ptr %8, align 4, !tbaa !19
  %74 = sub nsw i32 %73, %72
  store i32 %74, ptr %8, align 4, !tbaa !19
  call void @llvm.lifetime.end.p0(i64 8, ptr %10) #6
  br label %25, !llvm.loop !87

75:                                               ; preds = %25
  call void @llvm.lifetime.end.p0(i64 4, ptr %9) #6
  call void @llvm.lifetime.end.p0(i64 4, ptr %8) #6
  call void @llvm.lifetime.end.p0(i64 8, ptr %7) #6
  br label %76

76:                                               ; preds = %75, %3
  ret i32 0
}