; Function Attrs: nounwind uwtable
define internal noundef i32 @EmitRescaledAlphaRGB(ptr noundef readonly captures(none) %0, ptr noundef %1, i32 noundef %2) #1 {
  %4 = getelementptr inbounds nuw i8, ptr %0, i64 152
  %5 = load ptr, ptr %4, align 8, !tbaa !63
  %.not = icmp eq ptr %5, null
  br i1 %.not, label %.loopexit, label %6

6:                                                ; preds = %3
  %7 = getelementptr inbounds nuw i8, ptr %1, i64 72
  %8 = load ptr, ptr %7, align 8, !tbaa !34
  %9 = getelementptr inbounds nuw i8, ptr %1, i64 32
  %10 = load i32, ptr %9, align 8, !tbaa !22
  %11 = add nsw i32 %10, %2
  %12 = icmp sgt i32 %2, 0
  br i1 %12, label %.lr.ph, label %.loopexit

.lr.ph:                                           ; preds = %6
  %13 = getelementptr inbounds nuw i8, ptr %8, i64 60
  %14 = getelementptr inbounds nuw i8, ptr %0, i64 8
  %15 = getelementptr inbounds nuw i8, ptr %0, i64 16
  %16 = getelementptr inbounds nuw i8, ptr %1, i64 104
  br label %17

17:                                               ; preds = %.lr.ph, %17
  %.021 = phi i32 [ %2, %.lr.ph ], [ %35, %17 ]
  %18 = load i32, ptr %13, align 4, !tbaa !79
  %19 = sext i32 %18 to i64
  %20 = load i32, ptr %14, align 8, !tbaa !51
  %21 = sext i32 %20 to i64
  %22 = sub nsw i64 %19, %21
  %23 = load i32, ptr %15, align 8, !tbaa !15
  %24 = sub i32 %20, %18
  %25 = add i32 %24, %23
  %26 = load ptr, ptr %4, align 8, !tbaa !63
  %27 = load i32, ptr %0, align 8, !tbaa !64
  %28 = sext i32 %27 to i64
  %29 = mul nsw i64 %22, %28
  %30 = getelementptr inbounds i8, ptr %26, i64 %29
  %31 = tail call i32 @WebPRescalerImport(ptr noundef %8, i32 noundef %25, ptr noundef %30, i32 noundef %27) #6
  %32 = load ptr, ptr %16, align 8, !tbaa !35
  %33 = sub i32 %11, %.021
  %34 = tail call i32 %32(ptr noundef nonnull %1, i32 noundef %33, i32 noundef %.021) #6
  %35 = sub nsw i32 %.021, %34
  %36 = icmp sgt i32 %35, 0
  br i1 %36, label %17, label %.loopexit, !llvm.loop !80

.loopexit:                                        ; preds = %17, %6, %3
  ret i32 0
}